; Function Attrs: mustprogress uwtable
define hidden void @_ZN2qe8pred_abs7add_asmEP3appP4expr(ptr noundef nonnull align 8 dereferenceable(216) %this, ptr noundef %p, ptr noundef %assum) local_unnamed_addr #3 align 2 {
entry:
  %ref.tmp.i6 = alloca %"struct.obj_map<expr, expr *>::key_data", align 8
  %ref.tmp.i = alloca %"struct.obj_map<expr, app *>::key_data", align 8
  %tobool.not.i = icmp eq ptr %p, null
  br i1 %tobool.not.i, label %_ZN11ast_manager7inc_refEP3ast.exit, label %if.then.i

if.then.i:                                        ; preds = %entry
  %m_ref_count.i.i = getelementptr inbounds i8, ptr %p, i64 8
  %0 = load i32, ptr %m_ref_count.i.i, align 4
  %inc.i.i = add i32 %0, 1
  store i32 %inc.i.i, ptr %m_ref_count.i.i, align 4
  br label %_ZN11ast_manager7inc_refEP3ast.exit

_ZN11ast_manager7inc_refEP3ast.exit:              ; preds = %entry, %if.then.i
  %tobool.not.i1 = icmp eq ptr %assum, null
  br i1 %tobool.not.i1, label %_ZN11ast_manager7inc_refEP3ast.exit5, label %if.then.i2

if.then.i2:                                       ; preds = %_ZN11ast_manager7inc_refEP3ast.exit
  %m_ref_count.i.i3 = getelementptr inbounds i8, ptr %assum, i64 8
  %1 = load i32, ptr %m_ref_count.i.i3, align 4
  %inc.i.i4 = add i32 %1, 1
  store i32 %inc.i.i4, ptr %m_ref_count.i.i3, align 4
  br label %_ZN11ast_manager7inc_refEP3ast.exit5

_ZN11ast_manager7inc_refEP3ast.exit5:             ; preds = %_ZN11ast_manager7inc_refEP3ast.exit, %if.then.i2
  %m_asm2pred = getelementptr inbounds i8, ptr %this, i64 88
  call void @llvm.lifetime.start.p0(i64 16, ptr nonnull %ref.tmp.i)
  store ptr %assum, ptr %ref.tmp.i, align 8
  %m_value.i.i = getelementptr inbounds i8, ptr %ref.tmp.i, i64 8
  store ptr %p, ptr %m_value.i.i, align 8
  call void @_ZN14core_hashtableIN7obj_mapI4exprP3appE13obj_map_entryE8obj_hashINS4_8key_dataEE10default_eqIS7_EE6insertEOS7_(ptr noundef nonnull align 8 dereferenceable(20) %m_asm2pred, ptr noundef nonnull align 8 dereferenceable(16) %ref.tmp.i)
  call void @llvm.lifetime.end.p0(i64 16, ptr nonnull %ref.tmp.i)
  %m_pred2asm = getelementptr inbounds i8, ptr %this, i64 112
  call void @llvm.lifetime.start.p0(i64 16, ptr nonnull %ref.tmp.i6)
  store ptr %p, ptr %ref.tmp.i6, align 8
  %m_value.i.i7 = getelementptr inbounds i8, ptr %ref.tmp.i6, i64 8
  store ptr %assum, ptr %m_value.i.i7, align 8
  call void @_ZN14core_hashtableIN7obj_mapI4exprPS1_E13obj_map_entryE8obj_hashINS3_8key_dataEE10default_eqIS6_EE6insertEOS6_(ptr noundef nonnull align 8 dereferenceable(20) %m_pred2asm, ptr noundef nonnull align 8 dereferenceable(16) %ref.tmp.i6)
  call void @llvm.lifetime.end.p0(i64 16, ptr nonnull %ref.tmp.i6)
  ret void
}